target datalayout = "e-m:e-p270:32:32-p271:32:32-p272:64:64-i64:64-i128:128-f80:128-n8:16:32:64-S128"
target triple = "x86_64-unknown-linux-gnu"

%struct.QNum = type { %struct.QObjectBase_, i32, %union.anon }
%struct.QObjectBase_ = type { i32, i64 }
%union.anon = type { i64 }
%struct.QObject = type { %struct.QObjectBase_ }

@.str.9 = private unnamed_addr constant [59 x i8] c"QTYPE_NONE < obj->base.type && obj->base.type < QTYPE__MAX\00", align 1
@.str.10 = private unnamed_addr constant [105 x i8] c"/home/dtcxzyw/WorkSpace/Projects/compilers/llvm-opt-benchmark/bench/qemu/qemu/include/qapi/qmp/qobject.h\00", align 1
@__PRETTY_FUNCTION__.qobject_type = private unnamed_addr constant [36 x i8] c"QType qobject_type(const QObject *)\00", align 1

; Function Attrs: nounwind sspstrong uwtable
define internal i32 @qobject_type(ptr noundef %obj) #0 {
entry:
  %obj.addr = alloca ptr, align 8
  store ptr %obj, ptr %obj.addr, align 8
  %0 = load ptr, ptr %obj.addr, align 8
  %base = getelementptr inbounds %struct.QObject, ptr %0, i32 0, i32 0
  %type = getelementptr inbounds %struct.QObjectBase_, ptr %base, i32 0, i32 0
  %1 = load i32, ptr %type, align 8
  %cmp = icmp ult i32 0, %1
  br i1 %cmp, label %land.lhs.true, label %if.else

land.lhs.true:                                    ; preds = %entry
  %2 = load ptr, ptr %obj.addr, align 8
  %base1 = getelementptr inbounds %struct.QObject, ptr %2, i32 0, i32 0
  %type2 = getelementptr inbounds %struct.QObjectBase_, ptr %base1, i32 0, i32 0
  %3 = load i32, ptr %type2, align 8
  %cmp3 = icmp ult i32 %3, 7
  br i1 %cmp3, label %if.then, label %if.else

if.then:                                          ; preds = %land.lhs.true
  br label %if.end

if.else:                                          ; preds = %land.lhs.true, %entry
  call void @__assert_fail(ptr noundef @.str.9, ptr noundef @.str.10, i32 noundef 126, ptr noundef @__PRETTY_FUNCTION__.qobject_type) #5
  unreachable

if.end:                                           ; preds = %if.then
  %4 = load ptr, ptr %obj.addr, align 8
  %base4 = getelementptr inbounds %struct.QObject, ptr %4, i32 0, i32 0
  %type5 = getelementptr inbounds %struct.QObjectBase_, ptr %base4, i32 0, i32 0
  %5 = load i32, ptr %type5, align 8
  ret i32 %5
}

; Function Attrs: nounwind sspstrong uwtable
define internal ptr @qobject_check_type(ptr noundef %obj, i32 noundef %type) #0 {
entry:
  %retval = alloca ptr, align 8
  %obj.addr = alloca ptr, align 8
  %type.addr = alloca i32, align 4
  store ptr %obj, ptr %obj.addr, align 8
  store i32 %type, ptr %type.addr, align 4
  %0 = load ptr, ptr %obj.addr, align 8
  %tobool = icmp ne ptr %0, null
  br i1 %tobool, label %land.lhs.true, label %if.else

land.lhs.true:                                    ; preds = %entry
  %1 = load ptr, ptr %obj.addr, align 8
  %call = call i32 @qobject_type(ptr noundef %1)
  %2 = load i32, ptr %type.addr, align 4
  %cmp = icmp eq i32 %call, %2
  br i1 %cmp, label %if.then, label %if.else

if.then:                                          ; preds = %land.lhs.true
  %3 = load ptr, ptr %obj.addr, align 8
  store ptr %3, ptr %retval, align 8
  br label %return

if.else:                                          ; preds = %land.lhs.true, %entry
  store ptr null, ptr %retval, align 8
  br label %return

return:                                           ; preds = %if.else, %if.then
  %4 = load ptr, ptr %retval, align 8
  ret ptr %4
}

; Function Attrs: nounwind sspstrong uwtable
define dso_local zeroext i1 @qnum_is_equal(ptr noundef %x, ptr noundef %y) #0 {
entry:
  %retval = alloca i1, align 1
  %x.addr = alloca ptr, align 8
  %y.addr = alloca ptr, align 8
  %num_x = alloca ptr, align 8
  %num_y = alloca ptr, align 8
  store ptr %x, ptr %x.addr, align 8
  store ptr %y, ptr %y.addr, align 8
  %0 = load ptr, ptr %x.addr, align 8
  %call = call ptr @qobject_check_type(ptr noundef %0, i32 noundef 2)
  store ptr %call, ptr %num_x, align 8
  %1 = load ptr, ptr %y.addr, align 8
  %call1 = call ptr @qobject_check_type(ptr noundef %1, i32 noundef 2)
  store ptr %call1, ptr %num_y, align 8
  %2 = load ptr, ptr %num_x, align 8
  %kind = getelementptr inbounds %struct.QNum, ptr %2, i32 0, i32 1
  %3 = load i32, ptr %kind, align 8
  switch i32 %3, label %sw.epilog30 [
    i32 0, label %sw.bb
    i32 1, label %sw.bb12
    i32 2, label %sw.bb22
  ]

sw.bb:                                            ; preds = %entry
  %4 = load ptr, ptr %num_y, align 8
  %kind2 = getelementptr inbounds %struct.QNum, ptr %4, i32 0, i32 1
  %5 = load i32, ptr %kind2, align 8
  switch i32 %5, label %sw.epilog [
    i32 0, label %sw.bb3
    i32 1, label %sw.bb5
    i32 2, label %sw.bb11
  ]

sw.bb3:                                           ; preds = %sw.bb
  %6 = load ptr, ptr %num_x, align 8
  %u = getelementptr inbounds %struct.QNum, ptr %6, i32 0, i32 2
  %7 = load i64, ptr %u, align 8
  %8 = load ptr, ptr %num_y, align 8
  %u4 = getelementptr inbounds %struct.QNum, ptr %8, i32 0, i32 2
  %9 = load i64, ptr %u4, align 8
  %cmp = icmp eq i64 %7, %9
  store i1 %cmp, ptr %retval, align 1
  br label %return

sw.bb5:                                           ; preds = %sw.bb
  %10 = load ptr, ptr %num_x, align 8
  %u6 = getelementptr inbounds %struct.QNum, ptr %10, i32 0, i32 2
  %11 = load i64, ptr %u6, align 8
  %cmp7 = icmp sge i64 %11, 0
  br i1 %cmp7, label %land.rhs, label %land.end

land.rhs:                                         ; preds = %sw.bb5
  %12 = load ptr, ptr %num_x, align 8
  %u8 = getelementptr inbounds %struct.QNum, ptr %12, i32 0, i32 2
  %13 = load i64, ptr %u8, align 8
  %14 = load ptr, ptr %num_y, align 8
  %u9 = getelementptr inbounds %struct.QNum, ptr %14, i32 0, i32 2
  %15 = load i64, ptr %u9, align 8
  %cmp10 = icmp eq i64 %13, %15
  br label %land.end

land.end:                                         ; preds = %land.rhs, %sw.bb5
  %16 = phi i1 [ false, %sw.bb5 ], [ %cmp10, %land.rhs ]
  store i1 %16, ptr %retval, align 1
  br label %return

sw.bb11:                                          ; preds = %sw.bb
  store i1 false, ptr %retval, align 1
  br label %return

sw.epilog:                                        ; preds = %sw.bb
  call void @abort() #5
  unreachable

sw.bb12:                                          ; preds = %entry
  %17 = load ptr, ptr %num_y, align 8
  %kind13 = getelementptr inbounds %struct.QNum, ptr %17, i32 0, i32 1
  %18 = load i32, ptr %kind13, align 8
  switch i32 %18, label %sw.epilog21 [
    i32 0, label %sw.bb14
    i32 1, label %sw.bb16
    i32 2, label %sw.bb20
  ]

sw.bb14:                                          ; preds = %sw.bb12
  %19 = load ptr, ptr %y.addr, align 8
  %20 = load ptr, ptr %x.addr, align 8
  %call15 = call zeroext i1 @qnum_is_equal(ptr noundef %19, ptr noundef %20)
  store i1 %call15, ptr %retval, align 1
  br label %return

sw.bb16:                                          ; preds = %sw.bb12
  %21 = load ptr, ptr %num_x, align 8
  %u17 = getelementptr inbounds %struct.QNum, ptr %21, i32 0, i32 2
  %22 = load i64, ptr %u17, align 8
  %23 = load ptr, ptr %num_y, align 8
  %u18 = getelementptr inbounds %struct.QNum, ptr %23, i32 0, i32 2
  %24 = load i64, ptr %u18, align 8
  %cmp19 = icmp eq i64 %22, %24
  store i1 %cmp19, ptr %retval, align 1
  br label %return

sw.bb20:                                          ; preds = %sw.bb12
  store i1 false, ptr %retval, align 1
  br label %return

sw.epilog21:                                      ; preds = %sw.bb12
  call void @abort() #5
  unreachable

sw.bb22:                                          ; preds = %entry
  %25 = load ptr, ptr %num_y, align 8
  %kind23 = getelementptr inbounds %struct.QNum, ptr %25, i32 0, i32 1
  %26 = load i32, ptr %kind23, align 8
  switch i32 %26, label %sw.epilog29 [
    i32 0, label %sw.bb24
    i32 1, label %sw.bb24
    i32 2, label %sw.bb25
  ]

sw.bb24:                                          ; preds = %sw.bb22, %sw.bb22
  store i1 false, ptr %retval, align 1
  br label %return

sw.bb25:                                          ; preds = %sw.bb22
  %27 = load ptr, ptr %num_x, align 8
  %u26 = getelementptr inbounds %struct.QNum, ptr %27, i32 0, i32 2
  %28 = load double, ptr %u26, align 8
  %29 = load ptr, ptr %num_y, align 8
  %u27 = getelementptr inbounds %struct.QNum, ptr %29, i32 0, i32 2
  %30 = load double, ptr %u27, align 8
  %cmp28 = fcmp oeq double %28, %30
  store i1 %cmp28, ptr %retval, align 1
  br label %return

sw.epilog29:                                      ; preds = %sw.bb22
  call void @abort() #5
  unreachable

sw.epilog30:                                      ; preds = %entry
  call void @abort() #5
  unreachable

return:                                           ; preds = %sw.bb25, %sw.bb24, %sw.bb20, %sw.bb16, %sw.bb14, %sw.bb11, %land.end, %sw.bb3
  %31 = load i1, ptr %retval, align 1
  ret i1 %31
}