; Function Attrs: nounwind sspstrong uwtable
define dso_local zeroext i1 @qnum_is_equal(ptr noundef readonly %x, ptr noundef readonly %y) local_unnamed_addr #0 {
entry:
  br label %tailrecurse

tailrecurse:                                      ; preds = %sw.bb12, %entry
  %x.tr = phi ptr [ %x, %entry ], [ %y.tr, %sw.bb12 ]
  %y.tr = phi ptr [ %y, %entry ], [ %x.tr, %sw.bb12 ]
  %tobool.not.i = icmp eq ptr %x.tr, null
  br i1 %tobool.not.i, label %if.else.i, label %land.lhs.true.i

land.lhs.true.i:                                  ; preds = %tailrecurse
  %obj.val.i = load i32, ptr %x.tr, align 8
  %0 = add i32 %obj.val.i, -1
  %or.cond.i.i = icmp ult i32 %0, 6
  br i1 %or.cond.i.i, label %qobject_type.exit.i, label %if.else.i.i

if.else.i.i:                                      ; preds = %land.lhs.true.i
  tail call void @__assert_fail(ptr noundef nonnull @.str.9, ptr noundef nonnull @.str.10, i32 noundef 126, ptr noundef nonnull @__PRETTY_FUNCTION__.qobject_type) #6
  unreachable

qobject_type.exit.i:                              ; preds = %land.lhs.true.i
  %cmp.i = icmp eq i32 %obj.val.i, 2
  br i1 %cmp.i, label %qobject_check_type.exit, label %if.else.i

if.else.i:                                        ; preds = %qobject_type.exit.i, %tailrecurse
  br label %qobject_check_type.exit

qobject_check_type.exit:                          ; preds = %qobject_type.exit.i, %if.else.i
  %retval.0.i = phi ptr [ null, %if.else.i ], [ %x.tr, %qobject_type.exit.i ]
  %tobool.not.i14 = icmp eq ptr %y.tr, null
  br i1 %tobool.not.i14, label %if.else.i21, label %land.lhs.true.i15

land.lhs.true.i15:                                ; preds = %qobject_check_type.exit
  %obj.val.i16 = load i32, ptr %y.tr, align 8
  %1 = add i32 %obj.val.i16, -1
  %or.cond.i.i17 = icmp ult i32 %1, 6
  br i1 %or.cond.i.i17, label %qobject_type.exit.i19, label %if.else.i.i18

if.else.i.i18:                                    ; preds = %land.lhs.true.i15
  tail call void @__assert_fail(ptr noundef nonnull @.str.9, ptr noundef nonnull @.str.10, i32 noundef 126, ptr noundef nonnull @__PRETTY_FUNCTION__.qobject_type) #6
  unreachable

qobject_type.exit.i19:                            ; preds = %land.lhs.true.i15
  %cmp.i20 = icmp eq i32 %obj.val.i16, 2
  br i1 %cmp.i20, label %qobject_check_type.exit23, label %if.else.i21

if.else.i21:                                      ; preds = %qobject_type.exit.i19, %qobject_check_type.exit
  br label %qobject_check_type.exit23

qobject_check_type.exit23:                        ; preds = %qobject_type.exit.i19, %if.else.i21
  %retval.0.i22 = phi ptr [ null, %if.else.i21 ], [ %y.tr, %qobject_type.exit.i19 ]
  %kind = getelementptr inbounds nuw i8, ptr %retval.0.i, i64 16
  %2 = load i32, ptr %kind, align 8
  switch i32 %2, label %sw.epilog30 [
    i32 0, label %sw.bb
    i32 1, label %sw.bb12
    i32 2, label %sw.bb22
  ]

sw.bb:                                            ; preds = %qobject_check_type.exit23
  %kind2 = getelementptr inbounds nuw i8, ptr %retval.0.i22, i64 16
  %3 = load i32, ptr %kind2, align 8
  switch i32 %3, label %sw.epilog [
    i32 0, label %sw.bb3
    i32 1, label %sw.bb5
    i32 2, label %return
  ]

sw.bb3:                                           ; preds = %sw.bb
  %u = getelementptr inbounds nuw i8, ptr %retval.0.i, i64 24
  %4 = load i64, ptr %u, align 8
  %u4 = getelementptr inbounds nuw i8, ptr %retval.0.i22, i64 24
  %5 = load i64, ptr %u4, align 8
  %cmp = icmp eq i64 %4, %5
  br label %return

sw.bb5:                                           ; preds = %sw.bb
  %u6 = getelementptr inbounds nuw i8, ptr %retval.0.i, i64 24
  %6 = load i64, ptr %u6, align 8
  %cmp7 = icmp sgt i64 %6, -1
  br i1 %cmp7, label %land.rhs, label %return

land.rhs:                                         ; preds = %sw.bb5
  %u9 = getelementptr inbounds nuw i8, ptr %retval.0.i22, i64 24
  %7 = load i64, ptr %u9, align 8
  %cmp10 = icmp eq i64 %6, %7
  br label %return

sw.epilog:                                        ; preds = %sw.bb
  tail call void @abort() #6
  unreachable

sw.bb12:                                          ; preds = %qobject_check_type.exit23
  %kind13 = getelementptr inbounds nuw i8, ptr %retval.0.i22, i64 16
  %8 = load i32, ptr %kind13, align 8
  switch i32 %8, label %sw.epilog21 [
    i32 0, label %tailrecurse
    i32 1, label %sw.bb16
    i32 2, label %return
  ]

sw.bb16:                                          ; preds = %sw.bb12
  %u17 = getelementptr inbounds nuw i8, ptr %retval.0.i, i64 24
  %9 = load i64, ptr %u17, align 8
  %u18 = getelementptr inbounds nuw i8, ptr %retval.0.i22, i64 24
  %10 = load i64, ptr %u18, align 8
  %cmp19 = icmp eq i64 %9, %10
  br label %return

sw.epilog21:                                      ; preds = %sw.bb12
  tail call void @abort() #6
  unreachable

sw.bb22:                                          ; preds = %qobject_check_type.exit23
  %kind23 = getelementptr inbounds nuw i8, ptr %retval.0.i22, i64 16
  %11 = load i32, ptr %kind23, align 8
  switch i32 %11, label %sw.epilog29 [
    i32 0, label %return
    i32 1, label %return
    i32 2, label %sw.bb25
  ]

sw.bb25:                                          ; preds = %sw.bb22
  %u26 = getelementptr inbounds nuw i8, ptr %retval.0.i, i64 24
  %12 = load double, ptr %u26, align 8
  %u27 = getelementptr inbounds nuw i8, ptr %retval.0.i22, i64 24
  %13 = load double, ptr %u27, align 8
  %cmp28 = fcmp oeq double %12, %13
  br label %return

sw.epilog29:                                      ; preds = %sw.bb22
  tail call void @abort() #6
  unreachable

sw.epilog30:                                      ; preds = %qobject_check_type.exit23
  tail call void @abort() #6
  unreachable

return:                                           ; preds = %sw.bb12, %sw.bb22, %sw.bb22, %sw.bb, %sw.bb5, %land.rhs, %sw.bb25, %sw.bb16, %sw.bb3
  %retval.0 = phi i1 [ %cmp28, %sw.bb25 ], [ %cmp19, %sw.bb16 ], [ %cmp, %sw.bb3 ], [ false, %sw.bb5 ], [ %cmp10, %land.rhs ], [ false, %sw.bb ], [ false, %sw.bb22 ], [ false, %sw.bb22 ], [ false, %sw.bb12 ]
  ret i1 %retval.0
}